target datalayout = "e-m:e-p270:32:32-p271:32:32-p272:64:64-i64:64-i128:128-f80:128-n8:16:32:64-S128"
target triple = "x86_64-pc-linux-gnu"

%struct.ForEachState = type { ptr, i32 }
%struct.stat = type { i64, i64, i64, i32, i32, i32, i32, i64, i64, i64, i64, %struct.timespec, %struct.timespec, %struct.timespec, [3 x i64] }
%struct.timespec = type { i64, i64 }
%struct.List = type { i32, i32, i32, ptr, [0 x %union.ListCell] }
%union.ListCell = type { ptr }
%struct.RelationData = type { %struct.RelFileLocator, ptr, i32, i32, i8, i8, i8, i8, i8, i32, i32, i32, i32, ptr, ptr, i32, %struct.LockInfoData, ptr, ptr, ptr, ptr, ptr, i8, ptr, ptr, ptr, ptr, ptr, ptr, i32, ptr, i8, ptr, ptr, i32, i8, i32, ptr, i8, ptr, ptr, ptr, ptr, ptr, ptr, ptr, i32, ptr, ptr, ptr, ptr, ptr, ptr, ptr, ptr, ptr, ptr, ptr, ptr, ptr, ptr, ptr, ptr, ptr, ptr, ptr, i32, i8, ptr }
%struct.RelFileLocator = type { i32, i32, i32 }
%struct.LockInfoData = type { %struct.LockRelId }
%struct.LockRelId = type { i32, i32 }
%struct.nameData = type { [64 x i8] }
%struct.FormData_pg_tablespace = type { i32, %struct.nameData, i32 }
%struct.HeapTupleData = type { i32, %struct.ItemPointerData, i32, ptr }
%struct.ItemPointerData = type { %struct.BlockIdData, i16 }
%struct.BlockIdData = type { i16, i16 }
%struct.HeapTupleHeaderData = type { %union.anon.1, %struct.ItemPointerData, i16, i16, i8, [0 x i8] }
%union.anon.1 = type { %struct.HeapTupleFields }
%struct.HeapTupleFields = type { i32, i32, %union.anon.2 }
%union.anon.2 = type { i32 }
%struct.xl_dbase_drop_rec = type { i32, i32, [0 x i32] }
%struct.TableScanDescData = type { ptr, ptr, i32, ptr, %union.anon, i32, ptr }
%union.anon = type { %struct.TBMIterator }
%struct.TBMIterator = type { i8, %union.anon.0 }
%union.anon.0 = type { ptr }
%struct.TableAmRoutine = type { i32, ptr, ptr, ptr, ptr, ptr, ptr, ptr, ptr, ptr, ptr, ptr, ptr, ptr, ptr, ptr, ptr, ptr, ptr, ptr, ptr, ptr, ptr, ptr, ptr, ptr, ptr, ptr, ptr, ptr, ptr, ptr, ptr, ptr, ptr, ptr, ptr, ptr, ptr, ptr, ptr, ptr, ptr, ptr, ptr, ptr }

@.str.18 = private unnamed_addr constant [13 x i8] c"dbcommands.c\00", align 1
@.str.105 = private unnamed_addr constant [69 x i8] c"some useless files may be left behind in old database directory \22%s\22\00", align 1
@__func__.remove_dbtablespaces = private unnamed_addr constant [21 x i8] c"remove_dbtablespaces\00", align 1

; Function Attrs: inlinehint nounwind uwtable
define internal void @table_endscan(ptr noundef %0) #7 {
  %2 = alloca ptr, align 8
  store ptr %0, ptr %2, align 8
  %3 = load ptr, ptr %2, align 8
  %4 = getelementptr inbounds nuw %struct.TableScanDescData, ptr %3, i32 0, i32 0
  %5 = load ptr, ptr %4, align 8
  %6 = getelementptr inbounds nuw %struct.RelationData, ptr %5, i32 0, i32 47
  %7 = load ptr, ptr %6, align 8
  %8 = getelementptr inbounds nuw %struct.TableAmRoutine, ptr %7, i32 0, i32 3
  %9 = load ptr, ptr %8, align 8
  %10 = load ptr, ptr %2, align 8
  call void %9(ptr noundef %10)
  ret void
}

; Function Attrs: inlinehint nounwind uwtable
define internal i32 @list_length(ptr noundef %0) #7 {
  %2 = alloca ptr, align 8
  store ptr %0, ptr %2, align 8
  %3 = load ptr, ptr %2, align 8
  %4 = icmp ne ptr %3, null
  br i1 %4, label %5, label %9

5:                                                ; preds = %1
  %6 = load ptr, ptr %2, align 8
  %7 = getelementptr inbounds nuw %struct.List, ptr %6, i32 0, i32 1
  %8 = load i32, ptr %7, align 4
  br label %10

9:                                                ; preds = %1
  br label %10

10:                                               ; preds = %9, %5
  %11 = phi i32 [ %8, %5 ], [ 0, %9 ]
  ret i32 %11
}

; Function Attrs: inlinehint nounwind uwtable
define internal ptr @GETSTRUCT(ptr noundef %0) #7 {
  %2 = alloca ptr, align 8
  store ptr %0, ptr %2, align 8
  %3 = load ptr, ptr %2, align 8
  %4 = getelementptr inbounds nuw %struct.HeapTupleData, ptr %3, i32 0, i32 3
  %5 = load ptr, ptr %4, align 8
  %6 = load ptr, ptr %2, align 8
  %7 = getelementptr inbounds nuw %struct.HeapTupleData, ptr %6, i32 0, i32 3
  %8 = load ptr, ptr %7, align 8
  %9 = getelementptr inbounds nuw %struct.HeapTupleHeaderData, ptr %8, i32 0, i32 4
  %10 = load i8, ptr %9, align 2
  %11 = zext i8 %10 to i32
  %12 = sext i32 %11 to i64
  %13 = getelementptr inbounds i8, ptr %5, i64 %12
  ret ptr %13
}

; Function Attrs: nounwind uwtable
define internal void @remove_dbtablespaces(i32 noundef %0) #0 {
  %2 = alloca i32, align 4
  %3 = alloca ptr, align 8
  %4 = alloca ptr, align 8
  %5 = alloca ptr, align 8
  %6 = alloca ptr, align 8
  %7 = alloca ptr, align 8
  %8 = alloca i32, align 4
  %9 = alloca i32, align 4
  %10 = alloca ptr, align 8
  %11 = alloca ptr, align 8
  %12 = alloca i32, align 4
  %13 = alloca ptr, align 8
  %14 = alloca %struct.stat, align 8
  %15 = alloca i32, align 4
  %16 = alloca %struct.ForEachState, align 8
  %17 = alloca %struct.xl_dbase_drop_rec, align 4
  store i32 %0, ptr %2, align 4
  call void @llvm.lifetime.start.p0(i64 8, ptr %3) #14
  call void @llvm.lifetime.start.p0(i64 8, ptr %4) #14
  call void @llvm.lifetime.start.p0(i64 8, ptr %5) #14
  call void @llvm.lifetime.start.p0(i64 8, ptr %6) #14
  store ptr null, ptr %6, align 8
  call void @llvm.lifetime.start.p0(i64 8, ptr %7) #14
  call void @llvm.lifetime.start.p0(i64 4, ptr %8) #14
  call void @llvm.lifetime.start.p0(i64 4, ptr %9) #14
  call void @llvm.lifetime.start.p0(i64 8, ptr %10) #14
  %18 = call ptr @table_open(i32 noundef 1213, i32 noundef 1)
  store ptr %18, ptr %3, align 8
  %19 = load ptr, ptr %3, align 8
  %20 = call ptr @table_beginscan_catalog(ptr noundef %19, i32 noundef 0, ptr noundef null)
  store ptr %20, ptr %4, align 8
  br label %21

21:                                               ; preds = %70, %68, %1
  %22 = load ptr, ptr %4, align 8
  %23 = call ptr @heap_getnext(ptr noundef %22, i32 noundef 1)
  store ptr %23, ptr %5, align 8
  %24 = icmp ne ptr %23, null
  br i1 %24, label %25, label %71

25:                                               ; preds = %21
  call void @llvm.lifetime.start.p0(i64 8, ptr %11) #14
  %26 = load ptr, ptr %5, align 8
  %27 = call ptr @GETSTRUCT(ptr noundef %26)
  store ptr %27, ptr %11, align 8
  call void @llvm.lifetime.start.p0(i64 4, ptr %12) #14
  %28 = load ptr, ptr %11, align 8
  %29 = getelementptr inbounds nuw %struct.FormData_pg_tablespace, ptr %28, i32 0, i32 0
  %30 = load i32, ptr %29, align 4
  store i32 %30, ptr %12, align 4
  call void @llvm.lifetime.start.p0(i64 8, ptr %13) #14
  call void @llvm.lifetime.start.p0(i64 144, ptr %14) #14
  %31 = load i32, ptr %12, align 4
  %32 = icmp eq i32 %31, 1664
  br i1 %32, label %33, label %34

33:                                               ; preds = %25
  store i32 2, ptr %15, align 4
  br label %68, !llvm.loop !12

34:                                               ; preds = %25
  %35 = load i32, ptr %2, align 4
  %36 = load i32, ptr %12, align 4
  %37 = call ptr @GetDatabasePath(i32 noundef %35, i32 noundef %36)
  store ptr %37, ptr %13, align 8
  %38 = load ptr, ptr %13, align 8
  %39 = call i32 @lstat(ptr noundef %38, ptr noundef %14) #14
  %40 = icmp slt i32 %39, 0
  br i1 %40, label %46, label %41

41:                                               ; preds = %34
  %42 = getelementptr inbounds nuw %struct.stat, ptr %14, i32 0, i32 3
  %43 = load i32, ptr %42, align 8
  %44 = and i32 %43, 61440
  %45 = icmp eq i32 %44, 16384
  br i1 %45, label %48, label %46

46:                                               ; preds = %41, %34
  %47 = load ptr, ptr %13, align 8
  call void @pfree(ptr noundef %47)
  store i32 2, ptr %15, align 4
  br label %68, !llvm.loop !12

48:                                               ; preds = %41
  %49 = load ptr, ptr %13, align 8
  %50 = call zeroext i1 @rmtree(ptr noundef %49, i1 noundef zeroext true)
  br i1 %50, label %63, label %51

51:                                               ; preds = %48
  br label %52

52:                                               ; preds = %51
  br i1 false, label %53, label %55

53:                                               ; preds = %52
  %54 = call zeroext i1 @errstart_cold(i32 noundef 19, ptr noundef null) #17
  br i1 %54, label %57, label %60

55:                                               ; preds = %52
  %56 = call zeroext i1 @errstart(i32 noundef 19, ptr noundef null)
  br i1 %56, label %57, label %60

57:                                               ; preds = %55, %53
  %58 = load ptr, ptr %13, align 8
  %59 = call i32 (ptr, ...) @errmsg(ptr noundef @.str.105, ptr noundef %58)
  call void @errfinish(ptr noundef @.str.18, i32 noundef 3013, ptr noundef @__func__.remove_dbtablespaces)
  br label %60

60:                                               ; preds = %57, %55, %53
  br label %61

61:                                               ; preds = %60
  br label %62

62:                                               ; preds = %61
  br label %63

63:                                               ; preds = %62, %48
  %64 = load ptr, ptr %6, align 8
  %65 = load i32, ptr %12, align 4
  %66 = call ptr @lappend_oid(ptr noundef %64, i32 noundef %65)
  store ptr %66, ptr %6, align 8
  %67 = load ptr, ptr %13, align 8
  call void @pfree(ptr noundef %67)
  store i32 0, ptr %15, align 4
  br label %68

68:                                               ; preds = %63, %46, %33
  call void @llvm.lifetime.end.p0(i64 144, ptr %14) #14
  call void @llvm.lifetime.end.p0(i64 8, ptr %13) #14
  call void @llvm.lifetime.end.p0(i64 4, ptr %12) #14
  call void @llvm.lifetime.end.p0(i64 8, ptr %11) #14
  %69 = load i32, ptr %15, align 4
  switch i32 %69, label %144 [
    i32 0, label %70
    i32 2, label %21
  ]

70:                                               ; preds = %68
  br label %21, !llvm.loop !12

71:                                               ; preds = %21
  %72 = load ptr, ptr %6, align 8
  %73 = call i32 @list_length(ptr noundef %72)
  store i32 %73, ptr %8, align 4
  %74 = load i32, ptr %8, align 4
  %75 = icmp eq i32 %74, 0
  br i1 %75, label %76, label %79

76:                                               ; preds = %71
  %77 = load ptr, ptr %4, align 8
  call void @table_endscan(ptr noundef %77)
  %78 = load ptr, ptr %3, align 8
  call void @table_close(ptr noundef %78, i32 noundef 1)
  store i32 1, ptr %15, align 4
  br label %141

79:                                               ; preds = %71
  %80 = load i32, ptr %8, align 4
  %81 = sext i32 %80 to i64
  %82 = mul i64 %81, 4
  %83 = call ptr @palloc(i64 noundef %82)
  store ptr %83, ptr %10, align 8
  store i32 0, ptr %9, align 4
  call void @llvm.lifetime.start.p0(i64 16, ptr %16) #14
  %84 = getelementptr inbounds nuw %struct.ForEachState, ptr %16, i32 0, i32 0
  %85 = load ptr, ptr %6, align 8
  store ptr %85, ptr %84, align 8
  %86 = getelementptr inbounds nuw %struct.ForEachState, ptr %16, i32 0, i32 1
  store i32 0, ptr %86, align 8
  %87 = getelementptr i8, ptr %16, i64 12
  call void @llvm.memset.p0.i64(ptr align 4 %87, i8 0, i64 4, i1 false)
  br label %88

88:                                               ; preds = %122, %79
  %89 = getelementptr inbounds nuw %struct.ForEachState, ptr %16, i32 0, i32 0
  %90 = load ptr, ptr %89, align 8
  %91 = icmp ne ptr %90, null
  br i1 %91, label %92, label %109

92:                                               ; preds = %88
  %93 = getelementptr inbounds nuw %struct.ForEachState, ptr %16, i32 0, i32 1
  %94 = load i32, ptr %93, align 8
  %95 = getelementptr inbounds nuw %struct.ForEachState, ptr %16, i32 0, i32 0
  %96 = load ptr, ptr %95, align 8
  %97 = getelementptr inbounds nuw %struct.List, ptr %96, i32 0, i32 1
  %98 = load i32, ptr %97, align 4
  %99 = icmp slt i32 %94, %98
  br i1 %99, label %100, label %109

100:                                              ; preds = %92
  %101 = getelementptr inbounds nuw %struct.ForEachState, ptr %16, i32 0, i32 0
  %102 = load ptr, ptr %101, align 8
  %103 = getelementptr inbounds nuw %struct.List, ptr %102, i32 0, i32 3
  %104 = load ptr, ptr %103, align 8
  %105 = getelementptr inbounds nuw %struct.ForEachState, ptr %16, i32 0, i32 1
  %106 = load i32, ptr %105, align 8
  %107 = sext i32 %106 to i64
  %108 = getelementptr inbounds %union.ListCell, ptr %104, i64 %107
  store ptr %108, ptr %7, align 8
  br label %110

109:                                              ; preds = %92, %88
  store ptr null, ptr %7, align 8
  br label %110

110:                                              ; preds = %109, %100
  %111 = phi i32 [ 1, %100 ], [ 0, %109 ]
  %112 = icmp ne i32 %111, 0
  br i1 %112, label %114, label %113

113:                                              ; preds = %110
  store i32 6, ptr %15, align 4
  call void @llvm.lifetime.end.p0(i64 16, ptr %16) #14
  br label %126

114:                                              ; preds = %110
  %115 = load ptr, ptr %7, align 8
  %116 = load i32, ptr %115, align 8
  %117 = load ptr, ptr %10, align 8
  %118 = load i32, ptr %9, align 4
  %119 = add i32 %118, 1
  store i32 %119, ptr %9, align 4
  %120 = sext i32 %118 to i64
  %121 = getelementptr inbounds i32, ptr %117, i64 %120
  store i32 %116, ptr %121, align 4
  br label %122

122:                                              ; preds = %114
  %123 = getelementptr inbounds nuw %struct.ForEachState, ptr %16, i32 0, i32 1
  %124 = load i32, ptr %123, align 8
  %125 = add i32 %124, 1
  store i32 %125, ptr %123, align 8
  br label %88, !llvm.loop !13

126:                                              ; preds = %113
  call void @llvm.lifetime.start.p0(i64 8, ptr %17) #14
  %127 = load i32, ptr %2, align 4
  %128 = getelementptr inbounds nuw %struct.xl_dbase_drop_rec, ptr %17, i32 0, i32 0
  store i32 %127, ptr %128, align 4
  %129 = load i32, ptr %8, align 4
  %130 = getelementptr inbounds nuw %struct.xl_dbase_drop_rec, ptr %17, i32 0, i32 1
  store i32 %129, ptr %130, align 4
  call void @XLogBeginInsert()
  call void @XLogRegisterData(ptr noundef %17, i32 noundef 8)
  %131 = load ptr, ptr %10, align 8
  %132 = load i32, ptr %8, align 4
  %133 = sext i32 %132 to i64
  %134 = mul i64 %133, 4
  %135 = trunc i64 %134 to i32
  call void @XLogRegisterData(ptr noundef %131, i32 noundef %135)
  %136 = call i64 @XLogInsert(i8 noundef zeroext 4, i8 noundef zeroext 33)
  call void @llvm.lifetime.end.p0(i64 8, ptr %17) #14
  %137 = load ptr, ptr %6, align 8
  call void @list_free(ptr noundef %137)
  %138 = load ptr, ptr %10, align 8
  call void @pfree(ptr noundef %138)
  %139 = load ptr, ptr %4, align 8
  call void @table_endscan(ptr noundef %139)
  %140 = load ptr, ptr %3, align 8
  call void @table_close(ptr noundef %140, i32 noundef 1)
  store i32 0, ptr %15, align 4
  br label %141

141:                                              ; preds = %126, %76
  call void @llvm.lifetime.end.p0(i64 8, ptr %10) #14
  call void @llvm.lifetime.end.p0(i64 4, ptr %9) #14
  call void @llvm.lifetime.end.p0(i64 4, ptr %8) #14
  call void @llvm.lifetime.end.p0(i64 8, ptr %7) #14
  call void @llvm.lifetime.end.p0(i64 8, ptr %6) #14
  call void @llvm.lifetime.end.p0(i64 8, ptr %5) #14
  call void @llvm.lifetime.end.p0(i64 8, ptr %4) #14
  call void @llvm.lifetime.end.p0(i64 8, ptr %3) #14
  %142 = load i32, ptr %15, align 4
  switch i32 %142, label %144 [
    i32 0, label %143
    i32 1, label %143
  ]

143:                                              ; preds = %141, %141
  ret void

144:                                              ; preds = %141, %68
  unreachable
}