; Function Attrs: nounwind uwtable
define internal fastcc void @remove_dbtablespaces(i32 noundef %0) unnamed_addr #0 {
  %2 = alloca %struct.stat, align 8
  %3 = alloca %struct.xl_dbase_drop_rec, align 4
  %4 = tail call ptr @table_open(i32 noundef 1213, i32 noundef 1) #16
  %5 = tail call ptr @table_beginscan_catalog(ptr noundef %4, i32 noundef 0, ptr noundef null) #16
  %6 = tail call ptr @heap_getnext(ptr noundef %5, i32 noundef 1) #16
  %.not43 = icmp eq ptr %6, null
  br i1 %.not43, label %list_length.exit.thread, label %.lr.ph

.lr.ph:                                           ; preds = %1
  %7 = getelementptr inbounds nuw i8, ptr %2, i64 24
  br label %8

8:                                                ; preds = %.lr.ph, %33
  %9 = phi ptr [ %6, %.lr.ph ], [ %34, %33 ]
  %.044 = phi ptr [ null, %.lr.ph ], [ %.1, %33 ]
  %10 = getelementptr i8, ptr %9, i64 16
  %.val = load ptr, ptr %10, align 8
  %11 = getelementptr inbounds nuw i8, ptr %.val, i64 22
  %12 = load i8, ptr %11, align 2
  %13 = zext i8 %12 to i64
  %14 = getelementptr inbounds nuw i8, ptr %.val, i64 %13
  %15 = load i32, ptr %14, align 4
  call void @llvm.lifetime.start.p0(i64 144, ptr nonnull %2) #16
  %16 = icmp eq i32 %15, 1664
  br i1 %16, label %33, label %17, !llvm.loop !13

17:                                               ; preds = %8
  %18 = tail call ptr @GetDatabasePath(i32 noundef %0, i32 noundef %15) #16
  %19 = call i32 @lstat(ptr noundef %18, ptr noundef nonnull %2) #16
  %20 = icmp slt i32 %19, 0
  br i1 %20, label %.sink.split, label %21, !llvm.loop !13

21:                                               ; preds = %17
  %22 = load i32, ptr %7, align 8
  %23 = and i32 %22, 61440
  %24 = icmp eq i32 %23, 16384
  br i1 %24, label %25, label %.sink.split, !llvm.loop !13

25:                                               ; preds = %21
  %26 = tail call zeroext i1 @rmtree(ptr noundef %18, i1 noundef zeroext true) #16
  br i1 %26, label %31, label %27

27:                                               ; preds = %25
  %28 = tail call zeroext i1 @errstart(i32 noundef 19, ptr noundef null) #16
  br i1 %28, label %29, label %31

29:                                               ; preds = %27
  %30 = tail call i32 (ptr, ...) @errmsg(ptr noundef nonnull @.str.105, ptr noundef %18) #16
  tail call void @errfinish(ptr noundef nonnull @.str.18, i32 noundef 3013, ptr noundef nonnull @__func__.remove_dbtablespaces) #16
  br label %31

31:                                               ; preds = %27, %29, %25
  %32 = tail call ptr @lappend_oid(ptr noundef %.044, i32 noundef %15) #16
  br label %.sink.split

.sink.split:                                      ; preds = %17, %21, %31
  %.1.ph = phi ptr [ %32, %31 ], [ %.044, %21 ], [ %.044, %17 ]
  tail call void @pfree(ptr noundef %18) #16
  br label %33

33:                                               ; preds = %.sink.split, %8
  %.1 = phi ptr [ %.044, %8 ], [ %.1.ph, %.sink.split ]
  call void @llvm.lifetime.end.p0(i64 144, ptr nonnull %2) #16
  %34 = tail call ptr @heap_getnext(ptr noundef %5, i32 noundef 1) #16
  %.not = icmp eq ptr %34, null
  br i1 %.not, label %._crit_edge, label %8

._crit_edge:                                      ; preds = %33
  %.not.i = icmp eq ptr %.1, null
  br i1 %.not.i, label %list_length.exit.thread, label %list_length.exit

list_length.exit:                                 ; preds = %._crit_edge
  %35 = getelementptr inbounds nuw i8, ptr %.1, i64 4
  %36 = load i32, ptr %35, align 4
  %37 = icmp eq i32 %36, 0
  br i1 %37, label %list_length.exit.thread, label %43

list_length.exit.thread:                          ; preds = %1, %._crit_edge, %list_length.exit
  %38 = load ptr, ptr %5, align 8
  %39 = getelementptr inbounds nuw i8, ptr %38, i64 320
  %40 = load ptr, ptr %39, align 8
  %41 = getelementptr inbounds nuw i8, ptr %40, i64 24
  %42 = load ptr, ptr %41, align 8
  tail call void %42(ptr noundef nonnull %5) #16
  tail call void @table_close(ptr noundef %4, i32 noundef 1) #16
  br label %66

43:                                               ; preds = %list_length.exit
  %44 = sext i32 %36 to i64
  %45 = shl nsw i64 %44, 2
  %46 = tail call ptr @palloc(i64 noundef %45) #16
  %47 = load i32, ptr %35, align 4
  %48 = icmp sgt i32 %47, 0
  br i1 %48, label %.lr.ph48, label %._crit_edge49

.lr.ph48:                                         ; preds = %43
  %49 = getelementptr inbounds nuw i8, ptr %.1, i64 16
  br label %58

._crit_edge49:                                    ; preds = %58, %43
  call void @llvm.lifetime.start.p0(i64 8, ptr nonnull %3) #16
  store i32 %0, ptr %3, align 4
  %50 = getelementptr inbounds nuw i8, ptr %3, i64 4
  store i32 %36, ptr %50, align 4
  tail call void @XLogBeginInsert() #16
  call void @XLogRegisterData(ptr noundef nonnull %3, i32 noundef 8) #16
  %51 = trunc i64 %45 to i32
  call void @XLogRegisterData(ptr noundef %46, i32 noundef %51) #16
  %52 = call i64 @XLogInsert(i8 noundef zeroext 4, i8 noundef zeroext 33) #16
  call void @llvm.lifetime.end.p0(i64 8, ptr nonnull %3) #16
  call void @list_free(ptr noundef nonnull %.1) #16
  call void @pfree(ptr noundef %46) #16
  %53 = load ptr, ptr %5, align 8
  %54 = getelementptr inbounds nuw i8, ptr %53, i64 320
  %55 = load ptr, ptr %54, align 8
  %56 = getelementptr inbounds nuw i8, ptr %55, i64 24
  %57 = load ptr, ptr %56, align 8
  call void %57(ptr noundef nonnull %5) #16
  call void @table_close(ptr noundef %4, i32 noundef 1) #16
  br label %66

58:                                               ; preds = %.lr.ph48, %58
  %indvars.iv = phi i64 [ 0, %.lr.ph48 ], [ %indvars.iv.next, %58 ]
  %59 = load ptr, ptr %49, align 8
  %60 = getelementptr inbounds nuw %union.ListCell, ptr %59, i64 %indvars.iv
  %61 = load i32, ptr %60, align 8
  %indvars.iv.next = add nuw nsw i64 %indvars.iv, 1
  %62 = getelementptr inbounds nuw i32, ptr %46, i64 %indvars.iv
  store i32 %61, ptr %62, align 4
  %63 = load i32, ptr %35, align 4
  %64 = sext i32 %63 to i64
  %65 = icmp slt i64 %indvars.iv.next, %64
  br i1 %65, label %58, label %._crit_edge49, !llvm.loop !14

66:                                               ; preds = %._crit_edge49, %list_length.exit.thread
  ret void
}